target datalayout = "e-m:e-p270:32:32-p271:32:32-p272:64:64-i64:64-i128:128-f80:128-n8:16:32:64-S128"
target triple = "x86_64-pc-linux-gnu"

%struct.ggml_hash_set = type { i64, ptr, ptr }
%struct.ggml_backend_sched = type { i8, i8, i32, [16 x ptr], [16 x ptr], ptr, %struct.ggml_hash_set, ptr, ptr, ptr, ptr, ptr, ptr, %struct.ggml_cgraph, ptr, i32, i32, i32, i32, [16 x [4 x ptr]], [10 x ptr], i32, ptr, ptr, ptr, ptr, i64, i32 }
%struct.ggml_cgraph = type { i32, i32, i32, ptr, ptr, ptr, ptr, %struct.ggml_hash_set, i32 }

@.str = private unnamed_addr constant [123 x i8] c"generated/home/dtcxzyw/WorkSpace/Projects/compilers/llvm-opt-benchmark/bench/llama.cpp/llama.cpp/ggml/src/ggml-backend.cpp\00", align 1
@.str.1 = private unnamed_addr constant [23 x i8] c"GGML_ASSERT(%s) failed\00", align 1
@.str.27 = private unnamed_addr constant [56 x i8] c"backend_index >= 0 && backend_index < sched->n_backends\00", align 1
@.str.57 = private unnamed_addr constant [118 x i8] c"generated/home/dtcxzyw/WorkSpace/Projects/compilers/llvm-opt-benchmark/bench/llama.cpp/llama.cpp/ggml/src/ggml-impl.h\00", align 1
@.str.58 = private unnamed_addr constant [12 x i8] c"fatal error\00", align 1

; Function Attrs: inlinehint mustprogress nounwind uwtable
define internal void @_ZL15ggml_bitset_setPjm(ptr noundef %0, i64 noundef %1) #14 {
  %3 = alloca ptr, align 8
  %4 = alloca i64, align 8
  store ptr %0, ptr %3, align 8, !tbaa !148
  store i64 %1, ptr %4, align 8, !tbaa !12
  %5 = load i64, ptr %4, align 8, !tbaa !12
  %6 = and i64 %5, 31
  %7 = trunc i64 %6 to i32
  %8 = shl i32 1, %7
  %9 = load ptr, ptr %3, align 8, !tbaa !148
  %10 = load i64, ptr %4, align 8, !tbaa !12
  %11 = lshr i64 %10, 5
  %12 = getelementptr inbounds nuw i32, ptr %9, i64 %11
  %13 = load i32, ptr %12, align 4, !tbaa !89
  %14 = or i32 %13, %8
  store i32 %14, ptr %12, align 4, !tbaa !89
  ret void
}

; Function Attrs: inlinehint mustprogress nounwind uwtable
define internal noundef zeroext i1 @_ZL15ggml_bitset_getPKjm(ptr noundef %0, i64 noundef %1) #14 {
  %3 = alloca ptr, align 8
  %4 = alloca i64, align 8
  store ptr %0, ptr %3, align 8, !tbaa !148
  store i64 %1, ptr %4, align 8, !tbaa !12
  %5 = load ptr, ptr %3, align 8, !tbaa !148
  %6 = load i64, ptr %4, align 8, !tbaa !12
  %7 = lshr i64 %6, 5
  %8 = getelementptr inbounds nuw i32, ptr %5, i64 %7
  %9 = load i32, ptr %8, align 4, !tbaa !89
  %10 = load i64, ptr %4, align 8, !tbaa !12
  %11 = and i64 %10, 31
  %12 = trunc i64 %11 to i32
  %13 = shl i32 1, %12
  %14 = and i32 %9, %13
  %15 = icmp ne i32 %14, 0
  %16 = xor i1 %15, true
  %17 = xor i1 %16, true
  ret i1 %17
}

; Function Attrs: inlinehint mustprogress nounwind uwtable
define internal noundef i64 @_ZL9ggml_hashPK11ggml_tensor(ptr noundef %0) #14 {
  %2 = alloca ptr, align 8
  store ptr %0, ptr %2, align 8, !tbaa !28
  %3 = load ptr, ptr %2, align 8, !tbaa !28
  %4 = ptrtoint ptr %3 to i64
  %5 = lshr i64 %4, 4
  ret i64 %5
}

; Function Attrs: mustprogress uwtable
define internal noundef i64 @_ZL24ggml_hash_find_or_insertP13ggml_hash_setP11ggml_tensor(ptr noundef %0, ptr noundef %1) #0 {
  %3 = alloca i64, align 8
  %4 = alloca ptr, align 8
  %5 = alloca ptr, align 8
  %6 = alloca i64, align 8
  %7 = alloca i64, align 8
  %8 = alloca i32, align 4
  store ptr %0, ptr %4, align 8, !tbaa !236
  store ptr %1, ptr %5, align 8, !tbaa !28
  call void @llvm.lifetime.start.p0(i64 8, ptr %6) #15
  %9 = load ptr, ptr %5, align 8, !tbaa !28
  %10 = call noundef i64 @_ZL9ggml_hashPK11ggml_tensor(ptr noundef %9)
  %11 = load ptr, ptr %4, align 8, !tbaa !236
  %12 = getelementptr inbounds nuw %struct.ggml_hash_set, ptr %11, i32 0, i32 0
  %13 = load i64, ptr %12, align 8, !tbaa !238
  %14 = urem i64 %10, %13
  store i64 %14, ptr %6, align 8, !tbaa !12
  call void @llvm.lifetime.start.p0(i64 8, ptr %7) #15
  %15 = load i64, ptr %6, align 8, !tbaa !12
  store i64 %15, ptr %7, align 8, !tbaa !12
  br label %16

16:                                               ; preds = %52, %2
  %17 = load ptr, ptr %4, align 8, !tbaa !236
  %18 = getelementptr inbounds nuw %struct.ggml_hash_set, ptr %17, i32 0, i32 1
  %19 = load ptr, ptr %18, align 8, !tbaa !239
  %20 = load i64, ptr %7, align 8, !tbaa !12
  %21 = call noundef zeroext i1 @_ZL15ggml_bitset_getPKjm(ptr noundef %19, i64 noundef %20)
  br i1 %21, label %34, label %22

22:                                               ; preds = %16
  %23 = load ptr, ptr %4, align 8, !tbaa !236
  %24 = getelementptr inbounds nuw %struct.ggml_hash_set, ptr %23, i32 0, i32 1
  %25 = load ptr, ptr %24, align 8, !tbaa !239
  %26 = load i64, ptr %7, align 8, !tbaa !12
  call void @_ZL15ggml_bitset_setPjm(ptr noundef %25, i64 noundef %26)
  %27 = load ptr, ptr %5, align 8, !tbaa !28
  %28 = load ptr, ptr %4, align 8, !tbaa !236
  %29 = getelementptr inbounds nuw %struct.ggml_hash_set, ptr %28, i32 0, i32 2
  %30 = load ptr, ptr %29, align 8, !tbaa !240
  %31 = load i64, ptr %7, align 8, !tbaa !12
  %32 = getelementptr inbounds nuw ptr, ptr %30, i64 %31
  store ptr %27, ptr %32, align 8, !tbaa !28
  %33 = load i64, ptr %7, align 8, !tbaa !12
  store i64 %33, ptr %3, align 8
  store i32 1, ptr %8, align 4
  br label %57

34:                                               ; preds = %16
  %35 = load ptr, ptr %4, align 8, !tbaa !236
  %36 = getelementptr inbounds nuw %struct.ggml_hash_set, ptr %35, i32 0, i32 2
  %37 = load ptr, ptr %36, align 8, !tbaa !240
  %38 = load i64, ptr %7, align 8, !tbaa !12
  %39 = getelementptr inbounds nuw ptr, ptr %37, i64 %38
  %40 = load ptr, ptr %39, align 8, !tbaa !28
  %41 = load ptr, ptr %5, align 8, !tbaa !28
  %42 = icmp eq ptr %40, %41
  br i1 %42, label %43, label %45

43:                                               ; preds = %34
  %44 = load i64, ptr %7, align 8, !tbaa !12
  store i64 %44, ptr %3, align 8
  store i32 1, ptr %8, align 4
  br label %57

45:                                               ; preds = %34
  %46 = load i64, ptr %7, align 8, !tbaa !12
  %47 = add i64 %46, 1
  %48 = load ptr, ptr %4, align 8, !tbaa !236
  %49 = getelementptr inbounds nuw %struct.ggml_hash_set, ptr %48, i32 0, i32 0
  %50 = load i64, ptr %49, align 8, !tbaa !238
  %51 = urem i64 %47, %50
  store i64 %51, ptr %7, align 8, !tbaa !12
  br label %52

52:                                               ; preds = %45
  %53 = load i64, ptr %7, align 8, !tbaa !12
  %54 = load i64, ptr %6, align 8, !tbaa !12
  %55 = icmp ne i64 %53, %54
  br i1 %55, label %16, label %56, !llvm.loop !241

56:                                               ; preds = %52
  call void (ptr, i32, ptr, ...) @ggml_abort(ptr noundef @.str.57, i32 noundef 276, ptr noundef @.str.58) #18
  unreachable

57:                                               ; preds = %43, %22
  call void @llvm.lifetime.end.p0(i64 8, ptr %7) #15
  call void @llvm.lifetime.end.p0(i64 8, ptr %6) #15
  %58 = load i64, ptr %3, align 8
  ret i64 %58
}

; Function Attrs: mustprogress nounwind uwtable
define internal noundef i32 @_ZL29ggml_backend_sched_backend_idP18ggml_backend_schedP12ggml_backend(ptr noundef %0, ptr noundef %1) #4 {
  %3 = alloca i32, align 4
  %4 = alloca ptr, align 8
  %5 = alloca ptr, align 8
  %6 = alloca i32, align 4
  %7 = alloca i32, align 4
  store ptr %0, ptr %4, align 8, !tbaa !131
  store ptr %1, ptr %5, align 8, !tbaa !56
  call void @llvm.lifetime.start.p0(i64 4, ptr %6) #15
  store i32 0, ptr %6, align 4, !tbaa !89
  br label %8

8:                                                ; preds = %27, %2
  %9 = load i32, ptr %6, align 4, !tbaa !89
  %10 = load ptr, ptr %4, align 8, !tbaa !131
  %11 = getelementptr inbounds nuw %struct.ggml_backend_sched, ptr %10, i32 0, i32 2
  %12 = load i32, ptr %11, align 4, !tbaa !143
  %13 = icmp slt i32 %9, %12
  br i1 %13, label %15, label %14

14:                                               ; preds = %8
  store i32 2, ptr %7, align 4
  br label %30

15:                                               ; preds = %8
  %16 = load ptr, ptr %4, align 8, !tbaa !131
  %17 = getelementptr inbounds nuw %struct.ggml_backend_sched, ptr %16, i32 0, i32 3
  %18 = load i32, ptr %6, align 4, !tbaa !89
  %19 = sext i32 %18 to i64
  %20 = getelementptr inbounds [16 x ptr], ptr %17, i64 0, i64 %19
  %21 = load ptr, ptr %20, align 8, !tbaa !56
  %22 = load ptr, ptr %5, align 8, !tbaa !56
  %23 = icmp eq ptr %21, %22
  br i1 %23, label %24, label %26

24:                                               ; preds = %15
  %25 = load i32, ptr %6, align 4, !tbaa !89
  store i32 %25, ptr %3, align 4
  store i32 1, ptr %7, align 4
  br label %30

26:                                               ; preds = %15
  br label %27

27:                                               ; preds = %26
  %28 = load i32, ptr %6, align 4, !tbaa !89
  %29 = add nsw i32 %28, 1
  store i32 %29, ptr %6, align 4, !tbaa !89
  br label %8, !llvm.loop !235

30:                                               ; preds = %24, %14
  call void @llvm.lifetime.end.p0(i64 4, ptr %6) #15
  %31 = load i32, ptr %7, align 4
  switch i32 %31, label %35 [
    i32 2, label %32
    i32 1, label %33
  ]

32:                                               ; preds = %30
  store i32 -1, ptr %3, align 4
  br label %33

33:                                               ; preds = %32, %30
  %34 = load i32, ptr %3, align 4
  ret i32 %34

35:                                               ; preds = %30
  unreachable
}

; Function Attrs: mustprogress uwtable
define void @ggml_backend_sched_set_tensor_backend(ptr noundef %0, ptr noundef %1, ptr noundef %2) #0 {
  %4 = alloca ptr, align 8
  %5 = alloca ptr, align 8
  %6 = alloca ptr, align 8
  %7 = alloca i32, align 4
  store ptr %0, ptr %4, align 8, !tbaa !131
  store ptr %1, ptr %5, align 8, !tbaa !28
  store ptr %2, ptr %6, align 8, !tbaa !56
  call void @llvm.lifetime.start.p0(i64 4, ptr %7) #15
  %8 = load ptr, ptr %4, align 8, !tbaa !131
  %9 = load ptr, ptr %6, align 8, !tbaa !56
  %10 = call noundef i32 @_ZL29ggml_backend_sched_backend_idP18ggml_backend_schedP12ggml_backend(ptr noundef %8, ptr noundef %9)
  store i32 %10, ptr %7, align 4, !tbaa !89
  %11 = load i32, ptr %7, align 4, !tbaa !89
  %12 = icmp sge i32 %11, 0
  br i1 %12, label %13, label %19

13:                                               ; preds = %3
  %14 = load i32, ptr %7, align 4, !tbaa !89
  %15 = load ptr, ptr %4, align 8, !tbaa !131
  %16 = getelementptr inbounds nuw %struct.ggml_backend_sched, ptr %15, i32 0, i32 2
  %17 = load i32, ptr %16, align 4, !tbaa !143
  %18 = icmp slt i32 %14, %17
  br i1 %18, label %20, label %19

19:                                               ; preds = %13, %3
  call void (ptr, i32, ptr, ...) @ggml_abort(ptr noundef @.str, i32 noundef 1628, ptr noundef @.str.1, ptr noundef @.str.27) #18
  unreachable

20:                                               ; preds = %13
  %21 = load i32, ptr %7, align 4, !tbaa !89
  %22 = load ptr, ptr %4, align 8, !tbaa !131
  %23 = getelementptr inbounds nuw %struct.ggml_backend_sched, ptr %22, i32 0, i32 7
  %24 = load ptr, ptr %23, align 8, !tbaa !151
  %25 = load ptr, ptr %4, align 8, !tbaa !131
  %26 = getelementptr inbounds nuw %struct.ggml_backend_sched, ptr %25, i32 0, i32 6
  %27 = load ptr, ptr %5, align 8, !tbaa !28
  %28 = call noundef i64 @_ZL24ggml_hash_find_or_insertP13ggml_hash_setP11ggml_tensor(ptr noundef %26, ptr noundef %27)
  %29 = getelementptr inbounds nuw i32, ptr %24, i64 %28
  store i32 %21, ptr %29, align 4, !tbaa !89
  %30 = load ptr, ptr %4, align 8, !tbaa !131
  %31 = getelementptr inbounds nuw %struct.ggml_backend_sched, ptr %30, i32 0, i32 0
  store i8 0, ptr %31, align 8, !tbaa !164
  call void @llvm.lifetime.end.p0(i64 4, ptr %7) #15
  ret void
}