; Function Attrs: mustprogress uwtable
define void @ggml_backend_sched_set_tensor_backend(ptr noundef captures(none) %0, ptr noundef %1, ptr noundef readnone %2) local_unnamed_addr #0 {
  %4 = getelementptr inbounds nuw i8, ptr %0, i64 8
  %5 = getelementptr inbounds nuw i8, ptr %0, i64 4
  %6 = load i32, ptr %5, align 4, !tbaa !115
  %.not10.i = icmp sgt i32 %6, 0
  br i1 %.not10.i, label %.lr.ph.preheader.i, label %_ZL29ggml_backend_sched_backend_idP18ggml_backend_schedP12ggml_backend.exit.thread

.lr.ph.preheader.i:                               ; preds = %3
  %wide.trip.count.i = zext nneg i32 %6 to i64
  br label %.lr.ph.i

.lr.ph.i:                                         ; preds = %10, %.lr.ph.preheader.i
  %indvars.iv.i = phi i64 [ 0, %.lr.ph.preheader.i ], [ %indvars.iv.next.i, %10 ]
  %7 = getelementptr inbounds nuw [16 x ptr], ptr %4, i64 0, i64 %indvars.iv.i
  %8 = load ptr, ptr %7, align 8, !tbaa !102
  %9 = icmp eq ptr %8, %2
  br i1 %9, label %_ZL29ggml_backend_sched_backend_idP18ggml_backend_schedP12ggml_backend.exit, label %10

10:                                               ; preds = %.lr.ph.i
  %indvars.iv.next.i = add nuw nsw i64 %indvars.iv.i, 1
  %exitcond.not.i = icmp eq i64 %indvars.iv.next.i, %wide.trip.count.i
  br i1 %exitcond.not.i, label %_ZL29ggml_backend_sched_backend_idP18ggml_backend_schedP12ggml_backend.exit.thread, label %.lr.ph.i, !llvm.loop !216

_ZL29ggml_backend_sched_backend_idP18ggml_backend_schedP12ggml_backend.exit: ; preds = %.lr.ph.i
  %11 = trunc nuw nsw i64 %indvars.iv.i to i32
  %12 = icmp sgt i32 %6, %11
  br i1 %12, label %13, label %_ZL29ggml_backend_sched_backend_idP18ggml_backend_schedP12ggml_backend.exit.thread

_ZL29ggml_backend_sched_backend_idP18ggml_backend_schedP12ggml_backend.exit.thread: ; preds = %10, %3, %_ZL29ggml_backend_sched_backend_idP18ggml_backend_schedP12ggml_backend.exit
  tail call void (ptr, i32, ptr, ...) @ggml_abort(ptr noundef nonnull @.str, i32 noundef 1628, ptr noundef nonnull @.str.1, ptr noundef nonnull @.str.27) #24
  unreachable

13:                                               ; preds = %_ZL29ggml_backend_sched_backend_idP18ggml_backend_schedP12ggml_backend.exit
  %14 = getelementptr inbounds nuw i8, ptr %0, i64 296
  %15 = load ptr, ptr %14, align 8, !tbaa !121
  %16 = getelementptr inbounds nuw i8, ptr %0, i64 272
  %17 = ptrtoint ptr %1 to i64
  %18 = lshr i64 %17, 4
  %19 = load i64, ptr %16, align 8, !tbaa !155
  %20 = urem i64 %18, %19
  %21 = getelementptr inbounds nuw i8, ptr %0, i64 280
  %22 = load ptr, ptr %21, align 8, !tbaa !156
  %23 = getelementptr inbounds nuw i8, ptr %0, i64 288
  br label %24

24:                                               ; preds = %42, %13
  %.0.i = phi i64 [ %20, %13 ], [ %45, %42 ]
  %.0.fr.i = freeze i64 %.0.i
  %25 = lshr i64 %.0.fr.i, 5
  %26 = getelementptr inbounds nuw i32, ptr %22, i64 %25
  %27 = load i32, ptr %26, align 4, !tbaa !157
  %28 = trunc i64 %.0.fr.i to i32
  %29 = and i32 %28, 31
  %30 = shl nuw i32 1, %29
  %31 = and i32 %30, %27
  %.not21.i = icmp eq i32 %31, 0
  br i1 %.not21.i, label %32, label %37

32:                                               ; preds = %24
  %33 = getelementptr inbounds nuw i32, ptr %22, i64 %25
  %34 = or i32 %30, %27
  store i32 %34, ptr %33, align 4, !tbaa !157
  %35 = load ptr, ptr %23, align 8, !tbaa !158
  %36 = getelementptr inbounds nuw ptr, ptr %35, i64 %.0.fr.i
  store ptr %1, ptr %36, align 8, !tbaa !154
  br label %_ZL24ggml_hash_find_or_insertP13ggml_hash_setP11ggml_tensor.exit

37:                                               ; preds = %24
  %38 = load ptr, ptr %23, align 8, !tbaa !158
  %39 = getelementptr inbounds nuw ptr, ptr %38, i64 %.0.fr.i
  %40 = load ptr, ptr %39, align 8, !tbaa !154
  %41 = icmp eq ptr %40, %1
  br i1 %41, label %_ZL24ggml_hash_find_or_insertP13ggml_hash_setP11ggml_tensor.exit, label %42

42:                                               ; preds = %37
  %43 = add i64 %.0.fr.i, 1
  %44 = icmp eq i64 %43, %19
  %45 = select i1 %44, i64 0, i64 %43
  %.not.i = icmp eq i64 %45, %20
  br i1 %.not.i, label %46, label %24, !llvm.loop !159

46:                                               ; preds = %42
  tail call void (ptr, i32, ptr, ...) @ggml_abort(ptr noundef nonnull @.str.57, i32 noundef 276, ptr noundef nonnull @.str.58) #24
  unreachable

_ZL24ggml_hash_find_or_insertP13ggml_hash_setP11ggml_tensor.exit: ; preds = %37, %32
  %47 = getelementptr inbounds nuw i32, ptr %15, i64 %.0.fr.i
  store i32 %11, ptr %47, align 4, !tbaa !157
  store i8 0, ptr %0, align 8, !tbaa !132
  ret void
}